; Function Attrs: mustprogress nounwind uwtable
define hidden noundef ptr @_ZN12Dependencies9DepStream8argumentEi(ptr nocapture noundef nonnull readonly align 8 dereferenceable(56) %0, i32 noundef %1) local_unnamed_addr #0 align 2 {
  %3 = getelementptr inbounds i8, ptr %0, i64 36
  %4 = sext i32 %1 to i64
  %5 = getelementptr inbounds [5 x i32], ptr %3, i64 0, i64 %4
  %6 = load i32, ptr %5, align 4
  %7 = load ptr, ptr %0, align 8
  %.not.i = icmp eq ptr %7, null
  br i1 %.not.i, label %23, label %8

8:                                                ; preds = %2
  %9 = icmp eq i32 %6, 0
  br i1 %9, label %_ZN12Dependencies9DepStream20recorded_metadata_atEi.exit.thread, label %10

10:                                               ; preds = %8
  %11 = getelementptr inbounds i8, ptr %7, i64 40
  %12 = load i32, ptr %11, align 8
  %13 = sext i32 %12 to i64
  %14 = getelementptr inbounds i8, ptr %7, i64 %13
  %15 = getelementptr inbounds i8, ptr %7, i64 180
  %16 = load i16, ptr %15, align 4
  %17 = zext i16 %16 to i64
  %18 = getelementptr inbounds i8, ptr %14, i64 %17
  %19 = sext i32 %6 to i64
  %20 = getelementptr ptr, ptr %18, i64 %19
  %21 = getelementptr i8, ptr %20, i64 -8
  %22 = load ptr, ptr %21, align 8
  br label %_ZN12Dependencies9DepStream20recorded_metadata_atEi.exit

23:                                               ; preds = %2
  %24 = getelementptr inbounds i8, ptr %0, i64 8
  %25 = load ptr, ptr %24, align 8
  %26 = getelementptr inbounds i8, ptr %25, i64 160
  %27 = load ptr, ptr %26, align 8
  %28 = getelementptr inbounds i8, ptr %27, i64 40
  %29 = tail call noundef ptr @_ZN13ValueRecorderIP8MetadataE2atEi(ptr noundef nonnull align 8 dereferenceable(33) %28, i32 noundef %6) #18
  br label %_ZN12Dependencies9DepStream20recorded_metadata_atEi.exit

_ZN12Dependencies9DepStream20recorded_metadata_atEi.exit: ; preds = %10, %23
  %.0.i = phi ptr [ %29, %23 ], [ %22, %10 ]
  %30 = icmp eq ptr %.0.i, null
  br i1 %30, label %_ZN12Dependencies9DepStream20recorded_metadata_atEi.exit.thread, label %_ZN12Dependencies20ctxk_encoded_as_nullENS_7DepTypeEP8Metadata.exit

_ZN12Dependencies9DepStream20recorded_metadata_atEi.exit.thread: ; preds = %8, %_ZN12Dependencies9DepStream20recorded_metadata_atEi.exit
  %31 = getelementptr inbounds i8, ptr %0, i64 32
  %32 = load i32, ptr %31, align 8
  %or.cond.i.i.i = icmp ugt i32 %32, 8
  %33 = shl nuw nsw i32 1, %32
  %34 = and i32 %33, 252
  %35 = icmp eq i32 %34, 0
  %.not1.i = select i1 %or.cond.i.i.i, i1 true, i1 %35
  %36 = sext i1 %.not1.i to i32
  %37 = icmp ne i32 %36, %1
  %or.cond.not = or i1 %.not1.i, %37
  %38 = and i32 %33, 510
  %.not = icmp eq i32 %38, 0
  %or.cond = select i1 %or.cond.not, i1 true, i1 %.not
  br i1 %or.cond, label %_ZN12Dependencies20ctxk_encoded_as_nullENS_7DepTypeEP8Metadata.exit, label %_ZN12Dependencies9DepStream14argument_countEv.exit

_ZN12Dependencies9DepStream14argument_countEv.exit: ; preds = %_ZN12Dependencies9DepStream20recorded_metadata_atEi.exit.thread
  %39 = zext nneg i32 %32 to i64
  %40 = getelementptr inbounds [9 x i32], ptr @_ZN12Dependencies9_dep_argsE, i64 0, i64 %39
  %41 = load i32, ptr %40, align 4
  %42 = icmp sgt i32 %41, 1
  br i1 %42, label %43, label %_ZN12Dependencies20ctxk_encoded_as_nullENS_7DepTypeEP8Metadata.exit

43:                                               ; preds = %_ZN12Dependencies9DepStream14argument_countEv.exit
  %44 = tail call noundef ptr @_ZN12Dependencies9DepStream8argumentEi(ptr noundef nonnull align 8 dereferenceable(56) %0, i32 noundef 1)
  %45 = and i32 %32, 14
  %switch.i = icmp eq i32 %45, 4
  br i1 %switch.i, label %46, label %_ZN12Dependencies20ctxk_encoded_as_nullENS_7DepTypeEP8Metadata.exit

46:                                               ; preds = %43
  %47 = getelementptr inbounds i8, ptr %44, i64 8
  %48 = load ptr, ptr %47, align 8
  %49 = getelementptr inbounds i8, ptr %48, i64 8
  %50 = load ptr, ptr %49, align 8
  %51 = getelementptr inbounds i8, ptr %50, i64 24
  %52 = load ptr, ptr %51, align 8
  br label %_ZN12Dependencies20ctxk_encoded_as_nullENS_7DepTypeEP8Metadata.exit

_ZN12Dependencies20ctxk_encoded_as_nullENS_7DepTypeEP8Metadata.exit: ; preds = %46, %43, %_ZN12Dependencies9DepStream20recorded_metadata_atEi.exit.thread, %_ZN12Dependencies9DepStream14argument_countEv.exit, %_ZN12Dependencies9DepStream20recorded_metadata_atEi.exit
  %.0 = phi ptr [ null, %_ZN12Dependencies9DepStream14argument_countEv.exit ], [ null, %_ZN12Dependencies9DepStream20recorded_metadata_atEi.exit.thread ], [ %.0.i, %_ZN12Dependencies9DepStream20recorded_metadata_atEi.exit ], [ %52, %46 ], [ null, %43 ]
  ret ptr %.0
}